(lp1
S'http://www.indeed.com/rc/clk?jk=88c2d3973e33de7f'
p2
aS'http://www.indeed.com/rc/clk?jk=582e8629fe5d885c'
p3
aS'http://www.indeed.com/rc/clk?jk=57bd97fbbacb533d'
p4
aS'http://www.indeed.com/rc/clk?jk=a9d9bc9e73f70dd9'
p5
aS'http://www.indeed.com/rc/clk?jk=b3e4d723f0d4df89'
p6
aS'http://www.indeed.com/rc/clk?jk=c8dbf6b02133bf91'
p7
aS'http://www.indeed.com/rc/clk?jk=8f5ea0c91c9205c5'
p8
aS'http://www.indeed.com/rc/clk?jk=013053fb21ac6553'
p9
aS'http://www.indeed.com/rc/clk?jk=bb87c86c52d21e5d'
p10
aS'http://www.indeed.com/rc/clk?jk=4e549a1d923a1577'
p11
aS'http://www.indeed.com/rc/clk?jk=e23f0d8a66471090'
p12
aS'http://www.indeed.com/rc/clk?jk=fa6b15591ca92311'
p13
aS'http://www.indeed.com/rc/clk?jk=d2c15b7269044f13'
p14
aS'http://www.indeed.com/rc/clk?jk=379f82a8af17c560'
p15
aS'http://www.indeed.com/rc/clk?jk=e9445b57934d24b0'
p16
aS'http://www.indeed.com/rc/clk?jk=0720238e84af1d95'
p17
aS'http://www.indeed.com/rc/clk?jk=9307bc98b5473131'
p18
aS'http://www.indeed.com/rc/clk?jk=c5ede3bd394b2214'
p19
aS'http://www.indeed.com/rc/clk?jk=6e9e5c173e8de039'
p20
aS'http://www.indeed.com/rc/clk?jk=94e7569671f5e794'
p21
aS'http://www.indeed.com/rc/clk?jk=b6e61dc26001af8f'
p22
aS'http://www.indeed.com/rc/clk?jk=acb3a2b4543852c6'
p23
aS'http://www.indeed.com/rc/clk?jk=f33813cd6635499a'
p24
aS'http://www.indeed.com/rc/clk?jk=09a99ac1b36ecbb2'
p25
aS'http://www.indeed.com/rc/clk?jk=c265aa6695994e3d'
p26
aS'http://www.indeed.com/rc/clk?jk=7d6878c547d31c4b'
p27
aS'http://www.indeed.com/rc/clk?jk=20bd58c17c5c952a'
p28
aS'http://www.indeed.com/rc/clk?jk=73c221c9def8d2af'
p29
aS'http://www.indeed.com/rc/clk?jk=a6d204eec6ee2190'
p30
aS'http://www.indeed.com/rc/clk?jk=cc70cc6d96849a6e'
p31
aS'http://www.indeed.com/rc/clk?jk=5061040a36caa0e8'
p32
aS'http://www.indeed.com/rc/clk?jk=67e65ee331a48c9f'
p33
aS'http://www.indeed.com/rc/clk?jk=d13bdf060c2431d0'
p34
aS'http://www.indeed.com/rc/clk?jk=fa7114e14f1a2570'
p35
aS'http://www.indeed.com/rc/clk?jk=237a55d74ab58553'
p36
aS'http://www.indeed.com/rc/clk?jk=936fb8ea0311ea89'
p37
aS'http://www.indeed.com/rc/clk?jk=7f3391c47c0d16b8'
p38
aS'http://www.indeed.com/rc/clk?jk=597d3dde19c74da2'
p39
aS'http://www.indeed.com/rc/clk?jk=a750bf86f5bed3bd'
p40
aS'http://www.indeed.com/rc/clk?jk=eaa32a76732fcc43'
p41
aS'http://www.indeed.com/rc/clk?jk=be82874e69063a2c'
p42
aS'http://www.indeed.com/rc/clk?jk=1948df27c8f410f1'
p43
aS'http://www.indeed.com/rc/clk?jk=9ab4562fbab237a5'
p44
aS'http://www.indeed.com/rc/clk?jk=c742c30952c55dc2'
p45
aS'http://www.indeed.com/rc/clk?jk=37a09903ceaffe72'
p46
aS'http://www.indeed.com/rc/clk?jk=166206137ebc9a28'
p47
aS'http://www.indeed.com/rc/clk?jk=7de7f75da4829d4c'
p48
aS'http://www.indeed.com/rc/clk?jk=c8584d0152ed6e05'
p49
aS'http://www.indeed.com/rc/clk?jk=c1c9d58399ed00cd'
p50
aS'http://www.indeed.com/rc/clk?jk=4d8ede96bbfe2243'
p51
aS'http://www.indeed.com/rc/clk?jk=27d0a95152c3c422'
p52
aS'http://www.indeed.com/rc/clk?jk=e0a714fb64031fa5'
p53
aS'http://www.indeed.com/rc/clk?jk=0dacb00a58d57cad'
p54
aS'http://www.indeed.com/rc/clk?jk=2b4bca4e77b7d9f2'
p55
aS'http://www.indeed.com/rc/clk?jk=4b62f555337f2dbd'
p56
aS'http://www.indeed.com/rc/clk?jk=597ce3e809b4329f'
p57
aS'http://www.indeed.com/rc/clk?jk=8b394088694574c8'
p58
aS'http://www.indeed.com/rc/clk?jk=be36a60c670bfb6a'
p59
aS'http://www.indeed.com/rc/clk?jk=3e44a241a69bb0c5'
p60
aS'http://www.indeed.com/rc/clk?jk=2b36c3436e979f79'
p61
aS'http://www.indeed.com/rc/clk?jk=35b95a33a5333009'
p62
aS'http://www.indeed.com/rc/clk?jk=97e9711566e35890'
p63
aS'http://www.indeed.com/rc/clk?jk=faf9df4c874b80ea'
p64
aS'http://www.indeed.com/rc/clk?jk=b39b4525cad09271'
p65
aS'http://www.indeed.com/rc/clk?jk=1213dc44fb0d9456'
p66
aS'http://www.indeed.com/rc/clk?jk=ceafa30de23efe8f'
p67
aS'http://www.indeed.com/rc/clk?jk=f9ca73ce3d0ffe9d'
p68
aS'http://www.indeed.com/rc/clk?jk=42358ac9776f5f94'
p69
aS'http://www.indeed.com/rc/clk?jk=e3d62a7070812533'
p70
aS'http://www.indeed.com/rc/clk?jk=ef8716106b0e4e74'
p71
aS'http://www.indeed.com/rc/clk?jk=eda694d09d74606c'
p72
aS'http://www.indeed.com/rc/clk?jk=f553064ce9049869'
p73
aS'http://www.indeed.com/rc/clk?jk=356b8b2f4034b0b5'
p74
aS'http://www.indeed.com/rc/clk?jk=ac593319318236e9'
p75
aS'http://www.indeed.com/rc/clk?jk=5f6dce4e0bd52e2d'
p76
aS'http://www.indeed.com/rc/clk?jk=88e9d6fb58bc3e76'
p77
aS'http://www.indeed.com/rc/clk?jk=031c3382b2f1da4f'
p78
aS'http://www.indeed.com/rc/clk?jk=b7ee5b4145c3e9e4'
p79
aS'http://www.indeed.com/rc/clk?jk=ac90d87ec49186b1'
p80
aS'http://www.indeed.com/rc/clk?jk=e0d6e4482cb05e6a'
p81
aS'http://www.indeed.com/rc/clk?jk=687e50236dc2ebae'
p82
aS'http://www.indeed.com/rc/clk?jk=3d92a8fd80ce747b'
p83
aS'http://www.indeed.com/rc/clk?jk=35b95a33a5333009'
p84
aS'http://www.indeed.com/rc/clk?jk=062962dc54c524a3'
p85
aS'http://www.indeed.com/rc/clk?jk=6dee0fc014e48229'
p86
aS'http://www.indeed.com/rc/clk?jk=d32e68a8a0d4140a'
p87
aS'http://www.indeed.com/rc/clk?jk=195008f5595ca51d'
p88
aS'http://www.indeed.com/rc/clk?jk=f5f15389b8f78894'
p89
aS'http://www.indeed.com/rc/clk?jk=271a4537bc9c44f2'
p90
aS'http://www.indeed.com/rc/clk?jk=94513a313cb70df6'
p91
aS'http://www.indeed.com/rc/clk?jk=d8c9e2e114da4f3c'
p92
aS'http://www.indeed.com/rc/clk?jk=2dd53fc12601900b'
p93
aS'http://www.indeed.com/rc/clk?jk=7087d99dea609cf7'
p94
aS'http://www.indeed.com/rc/clk?jk=25d6e1004f5836e8'
p95
aS'http://www.indeed.com/rc/clk?jk=70460f99e80e7e5c'
p96
aS'http://www.indeed.com/rc/clk?jk=37fec5f3dc9d36ce'
p97
aS'http://www.indeed.com/rc/clk?jk=40f28e6ad7539d1d'
p98
aS'http://www.indeed.com/rc/clk?jk=e0c02ba1b8127568'
p99
aS'http://www.indeed.com/rc/clk?jk=d23a9b9c9f302d2d'
p100
aS'http://www.indeed.com/rc/clk?jk=639f684bc9e0cded'
p101
aS'http://www.indeed.com/rc/clk?jk=852bd4baff0fa1fb'
p102
aS'http://www.indeed.com/rc/clk?jk=0cfa8f5dc2ae3557'
p103
aS'http://www.indeed.com/rc/clk?jk=1b4023d47b4bf733'
p104
aS'http://www.indeed.com/rc/clk?jk=bcaf611d5746b2b2'
p105
aS'http://www.indeed.com/rc/clk?jk=3d9be0b1d1835bee'
p106
aS'http://www.indeed.com/rc/clk?jk=2004e5aa896942e4'
p107
aS'http://www.indeed.com/rc/clk?jk=52017d1aa9050098'
p108
aS'http://www.indeed.com/rc/clk?jk=854e83970569a270'
p109
aS'http://www.indeed.com/rc/clk?jk=d0904bceb18d1b6d'
p110
aS'http://www.indeed.com/rc/clk?jk=97e9711566e35890'
p111
aS'http://www.indeed.com/rc/clk?jk=6b40f32592eb349b'
p112
aS'http://www.indeed.com/rc/clk?jk=5acb386c887dd493'
p113
aS'http://www.indeed.com/rc/clk?jk=defffefe6adb7903'
p114
aS'http://www.indeed.com/rc/clk?jk=3d6e7e5990128d5f'
p115
aS'http://www.indeed.com/rc/clk?jk=a3733362cbde1668'
p116
aS'http://www.indeed.com/rc/clk?jk=077588e0b5373b93'
p117
aS'http://www.indeed.com/rc/clk?jk=219776fa15c56aa5'
p118
aS'http://www.indeed.com/rc/clk?jk=80697b02b345f4e4'
p119
aS'http://www.indeed.com/rc/clk?jk=bc517d8245dc3504'
p120
aS'http://www.indeed.com/rc/clk?jk=2ec0b2ed59832008'
p121
aS'http://www.indeed.com/rc/clk?jk=ad0992a3e6daeec1'
p122
aS'http://www.indeed.com/rc/clk?jk=ae5955f5bacb0d36'
p123
aS'http://www.indeed.com/rc/clk?jk=4d867f93b6646c98'
p124
aS'http://www.indeed.com/rc/clk?jk=7c0211aefcaa95a5'
p125
aS'http://www.indeed.com/rc/clk?jk=405eaa80e41e5cc8'
p126
aS'http://www.indeed.com/rc/clk?jk=5911758ba6b5bc1e'
p127
aS'http://www.indeed.com/rc/clk?jk=7eff80f20aef5a9f'
p128
aS'http://www.indeed.com/rc/clk?jk=f90a19996408d31c'
p129
aS'http://www.indeed.com/rc/clk?jk=6c70674abc60fb8e'
p130
aS'http://www.indeed.com/rc/clk?jk=f93d891ad5ca1770'
p131
aS'http://www.indeed.com/rc/clk?jk=ab7d9a8786f2dfbc'
p132
aS'http://www.indeed.com/rc/clk?jk=f6bcbd9fc35723d1'
p133
aS'http://www.indeed.com/rc/clk?jk=5f5fafe4d5e1ff8a'
p134
aS'http://www.indeed.com/rc/clk?jk=c2cee80b2e5cc6cb'
p135
aS'http://www.indeed.com/rc/clk?jk=384fd3175969f095'
p136
aS'http://www.indeed.com/rc/clk?jk=5200682472a64e4c'
p137
aS'http://www.indeed.com/rc/clk?jk=d65e2b86e9dfd1e4'
p138
aS'http://www.indeed.com/rc/clk?jk=041727a6b3a646ec'
p139
aS'http://www.indeed.com/rc/clk?jk=722db748456c06cb'
p140
aS'http://www.indeed.com/rc/clk?jk=e0d5a163e0a54393'
p141
aS'http://www.indeed.com/rc/clk?jk=9f9229fd9717e292'
p142
aS'http://www.indeed.com/rc/clk?jk=e2cc8854bc1072ea'
p143
aS'http://www.indeed.com/rc/clk?jk=1637ca36096655be'
p144
aS'http://www.indeed.com/rc/clk?jk=2463d08bc874465b'
p145
aS'http://www.indeed.com/rc/clk?jk=71a538fb85a7aaff'
p146
aS'http://www.indeed.com/rc/clk?jk=0dd8c4260894cf6c'
p147
aS'http://www.indeed.com/rc/clk?jk=c09b91b2fb1f2477'
p148
aS'http://www.indeed.com/rc/clk?jk=43d2825ac835e8c8'
p149
aS'http://www.indeed.com/rc/clk?jk=1504de77a0d6ff16'
p150
aS'http://www.indeed.com/rc/clk?jk=eedb00e5c8a0db7b'
p151
aS'http://www.indeed.com/rc/clk?jk=cafe4e5cf33609f2'
p152
aS'http://www.indeed.com/rc/clk?jk=6c301ba609c994ed'
p153
aS'http://www.indeed.com/rc/clk?jk=fdddab96eab659b0'
p154
aS'http://www.indeed.com/rc/clk?jk=3e445b4fed9402ad'
p155
aS'http://www.indeed.com/rc/clk?jk=7a738634946bc1c4'
p156
aS'http://www.indeed.com/rc/clk?jk=9bcf36d97fb8c7e6'
p157
aS'http://www.indeed.com/rc/clk?jk=1636d769986ecf81'
p158
aS'http://www.indeed.com/rc/clk?jk=6753229e67fb7b72'
p159
aS'http://www.indeed.com/rc/clk?jk=52925674830b253b'
p160
aS'http://www.indeed.com/rc/clk?jk=a76c7d3e692f3506'
p161
aS'http://www.indeed.com/rc/clk?jk=e0f7801daacfac29'
p162
aS'http://www.indeed.com/rc/clk?jk=07c00e847c596b71'
p163
aS'http://www.indeed.com/rc/clk?jk=70821f6e0767fa39'
p164
aS'http://www.indeed.com/rc/clk?jk=49074ed15b126021'
p165
aS'http://www.indeed.com/rc/clk?jk=a63bdb56d51b9547'
p166
aS'http://www.indeed.com/rc/clk?jk=c194d76a1f906152'
p167
aS'http://www.indeed.com/rc/clk?jk=fbf2934b3b2dc290'
p168
aS'http://www.indeed.com/rc/clk?jk=cc65f08be605439a'
p169
aS'http://www.indeed.com/rc/clk?jk=bd86a7b1c19b7f91'
p170
aS'http://www.indeed.com/rc/clk?jk=b5cba0b7047a37c7'
p171
aS'http://www.indeed.com/rc/clk?jk=05e12912c284e9ee'
p172
aS'http://www.indeed.com/rc/clk?jk=d579b509725624eb'
p173
aS'http://www.indeed.com/rc/clk?jk=878cd21fb85395f6'
p174
aS'http://www.indeed.com/rc/clk?jk=c84c9bf936d8c4d6'
p175
aS'http://www.indeed.com/rc/clk?jk=9ef98dd03f4094cb'
p176
aS'http://www.indeed.com/rc/clk?jk=a154a50d6c31df90'
p177
aS'http://www.indeed.com/rc/clk?jk=23dfa3613af22a4a'
p178
aS'http://www.indeed.com/rc/clk?jk=96a7c5d74800bebe'
p179
aS'http://www.indeed.com/rc/clk?jk=019f52fe3a06f5d0'
p180
aS'http://www.indeed.com/rc/clk?jk=27657b76fca5c259'
p181
aS'http://www.indeed.com/rc/clk?jk=27c93d5c96117ccf'
p182
aS'http://www.indeed.com/rc/clk?jk=1d0708a2281dca76'
p183
aS'http://www.indeed.com/rc/clk?jk=df5ce91badb7fc1c'
p184
aS'http://www.indeed.com/rc/clk?jk=59a1fa928b36d50d'
p185
aS'http://www.indeed.com/rc/clk?jk=08dd73731d4c3d05'
p186
aS'http://www.indeed.com/rc/clk?jk=a5da4445b48bf7f0'
p187
aS'http://www.indeed.com/rc/clk?jk=3b42a7d9e37298d6'
p188
aS'http://www.indeed.com/rc/clk?jk=c62d8cf11008cb97'
p189
aS'http://www.indeed.com/rc/clk?jk=ab6fab81ca57c80c'
p190
aS'http://www.indeed.com/rc/clk?jk=1955fb10554d9c97'
p191
aS'http://www.indeed.com/rc/clk?jk=2d0bd7581ebffdc2'
p192
aS'http://www.indeed.com/rc/clk?jk=d074ee545f30cc6e'
p193
aS'http://www.indeed.com/rc/clk?jk=7452bd1524644e64'
p194
aS'http://www.indeed.com/rc/clk?jk=8c99d1cb8375dc8d'
p195
aS'http://www.indeed.com/rc/clk?jk=89c64ef4fef2769f'
p196
aS'http://www.indeed.com/rc/clk?jk=2762800835878bca'
p197
aS'http://www.indeed.com/rc/clk?jk=bfb558461294aa49'
p198
aS'http://www.indeed.com/rc/clk?jk=bdd8a05f83267cbc'
p199
aS'http://www.indeed.com/rc/clk?jk=79cf4b974c287209'
p200
aS'http://www.indeed.com/rc/clk?jk=565cb01e7f89e0f7'
p201
aS'http://www.indeed.com/rc/clk?jk=40b7f6e7f627580f'
p202
aS'http://www.indeed.com/rc/clk?jk=2db167023e42bdc9'
p203
aS'http://www.indeed.com/rc/clk?jk=ee996582aadb4463'
p204
aS'http://www.indeed.com/rc/clk?jk=83ee98a3857f06e3'
p205
aS'http://www.indeed.com/rc/clk?jk=51210deb0ca7b257'
p206
aS'http://www.indeed.com/rc/clk?jk=45622e353570bf7f'
p207
aS'http://www.indeed.com/rc/clk?jk=9788550a969df445'
p208
aS'http://www.indeed.com/rc/clk?jk=ce178252d6c38e35'
p209
aS'http://www.indeed.com/rc/clk?jk=00a9525ba218f696'
p210
aS'http://www.indeed.com/rc/clk?jk=b3bb1cfe5cce80de'
p211
aS'http://www.indeed.com/rc/clk?jk=4ed8122da46ee3b2'
p212
aS'http://www.indeed.com/rc/clk?jk=ff7f65cd23e1f352'
p213
aS'http://www.indeed.com/rc/clk?jk=368ec475b9d4bf15'
p214
aS'http://www.indeed.com/rc/clk?jk=75c68de95143ff2a'
p215
aS'http://www.indeed.com/rc/clk?jk=f069314dff791a7c'
p216
aS'http://www.indeed.com/rc/clk?jk=3d0123fd2a8d32cf'
p217
aS'http://www.indeed.com/rc/clk?jk=711ae01193ca21ee'
p218
aS'http://www.indeed.com/rc/clk?jk=40ccb9236d8a2a6c'
p219
aS'http://www.indeed.com/rc/clk?jk=062962dc54c524a3'
p220
aS'http://www.indeed.com/rc/clk?jk=f926aa1bb1d11bc3'
p221
aS'http://www.indeed.com/rc/clk?jk=49036341922e7261'
p222
aS'http://www.indeed.com/rc/clk?jk=2a17ed020a51e4e8'
p223
aS'http://www.indeed.com/rc/clk?jk=d91caf56173e676c'
p224
aS'http://www.indeed.com/rc/clk?jk=a5ebac301769f89d'
p225
aS'http://www.indeed.com/rc/clk?jk=a38d3e41f4daf41a'
p226
aS'http://www.indeed.com/rc/clk?jk=0c4ed3efd36650d2'
p227
aS'http://www.indeed.com/rc/clk?jk=373e3970fda58995'
p228
aS'http://www.indeed.com/rc/clk?jk=34591d411108595f'
p229
aS'http://www.indeed.com/rc/clk?jk=1038885d18fd38cd'
p230
aS'http://www.indeed.com/rc/clk?jk=7b82e2d5c3183440'
p231
aS'http://www.indeed.com/rc/clk?jk=9ea8ee98a9d76d85'
p232
aS'http://www.indeed.com/rc/clk?jk=436125b44eaba12d'
p233
aS'http://www.indeed.com/rc/clk?jk=fb9729792e53f6e3'
p234
aS'http://www.indeed.com/rc/clk?jk=6dbee0514c83651a'
p235
aS'http://www.indeed.com/rc/clk?jk=b20ba00ea7fd4334'
p236
aS'http://www.indeed.com/rc/clk?jk=49775eb40c17816d'
p237
aS'http://www.indeed.com/rc/clk?jk=019513ecd87cac97'
p238
aS'http://www.indeed.com/rc/clk?jk=0ca5a1439e4f7940'
p239
aS'http://www.indeed.com/rc/clk?jk=ca00869ad2b86966'
p240
aS'http://www.indeed.com/rc/clk?jk=23400518565d30f3'
p241
a.